; ModuleID = '33/320.c'
source_filename = "33/320.c"
target datalayout = "e-m:e-p270:32:32-p271:32:32-p272:64:64-i64:64-f80:128-n8:16:32:64-S128"
target triple = "x86_64-pc-linux-gnu"

@.str = private unnamed_addr constant [3 x i8] c"%d\00", align 1
@.str.1 = private unnamed_addr constant [3 x i8] c"%s\00", align 1
@.str.2 = private unnamed_addr constant [2 x i8] c"\0A\00", align 1

; Function Attrs: noinline nounwind uwtable
define dso_local i32 @main() #0 {
  %1 = alloca i32, align 4
  %2 = alloca i32, align 4
  %3 = alloca i32, align 4
  %4 = alloca i32, align 4
  %5 = alloca i32, align 4
  %6 = alloca i32, align 4
  %7 = alloca [1000 x [256 x i8]], align 16
  %8 = alloca [1000 x [256 x i8]], align 16
  store i32 0, i32* %1, align 4
  %9 = call i32 (i8*, ...) @__isoc99_scanf(i8* getelementptr inbounds ([3 x i8], [3 x i8]* @.str, i64 0, i64 0), i32* %2)
  store i32 0, i32* %3, align 4
  br label %10

10:                                               ; preds = %20, %0
  %11 = load i32, i32* %3, align 4
  %12 = load i32, i32* %2, align 4
  %13 = icmp slt i32 %11, %12
  br i1 %13, label %14, label %23

14:                                               ; preds = %10
  %15 = load i32, i32* %3, align 4
  %16 = sext i32 %15 to i64
  %17 = getelementptr inbounds [1000 x [256 x i8]], [1000 x [256 x i8]]* %7, i64 0, i64 %16
  %18 = getelementptr inbounds [256 x i8], [256 x i8]* %17, i64 0, i64 0
  %19 = call i32 (i8*, ...) @__isoc99_scanf(i8* getelementptr inbounds ([3 x i8], [3 x i8]* @.str.1, i64 0, i64 0), i8* %18)
  br label %20

20:                                               ; preds = %14
  %21 = load i32, i32* %3, align 4
  %22 = add nsw i32 %21, 1
  store i32 %22, i32* %3, align 4
  br label %10

23:                                               ; preds = %10
  store i32 0, i32* %3, align 4
  br label %24

24:                                               ; preds = %135, %23
  %25 = load i32, i32* %3, align 4
  %26 = load i32, i32* %2, align 4
  %27 = icmp slt i32 %25, %26
  br i1 %27, label %28, label %138

28:                                               ; preds = %24
  store i32 0, i32* %4, align 4
  br label %29

29:                                               ; preds = %125, %28
  %30 = load i32, i32* %4, align 4
  %31 = sext i32 %30 to i64
  %32 = load i32, i32* %3, align 4
  %33 = sext i32 %32 to i64
  %34 = getelementptr inbounds [1000 x [256 x i8]], [1000 x [256 x i8]]* %7, i64 0, i64 %33
  %35 = getelementptr inbounds [256 x i8], [256 x i8]* %34, i64 0, i64 0
  %36 = call i64 @strlen(i8* %35) #3
  %37 = add i64 %36, 1
  %38 = icmp ult i64 %31, %37
  br i1 %38, label %39, label %128

39:                                               ; preds = %29
  %40 = load i32, i32* %3, align 4
  %41 = sext i32 %40 to i64
  %42 = getelementptr inbounds [1000 x [256 x i8]], [1000 x [256 x i8]]* %7, i64 0, i64 %41
  %43 = load i32, i32* %4, align 4
  %44 = sext i32 %43 to i64
  %45 = getelementptr inbounds [256 x i8], [256 x i8]* %42, i64 0, i64 %44
  %46 = load i8, i8* %45, align 1
  %47 = sext i8 %46 to i32
  %48 = icmp eq i32 %47, 65
  br i1 %48, label %49, label %56

49:                                               ; preds = %39
  %50 = load i32, i32* %3, align 4
  %51 = sext i32 %50 to i64
  %52 = getelementptr inbounds [1000 x [256 x i8]], [1000 x [256 x i8]]* %8, i64 0, i64 %51
  %53 = load i32, i32* %4, align 4
  %54 = sext i32 %53 to i64
  %55 = getelementptr inbounds [256 x i8], [256 x i8]* %52, i64 0, i64 %54
  store i8 84, i8* %55, align 1
  br label %125

56:                                               ; preds = %39
  %57 = load i32, i32* %3, align 4
  %58 = sext i32 %57 to i64
  %59 = getelementptr inbounds [1000 x [256 x i8]], [1000 x [256 x i8]]* %7, i64 0, i64 %58
  %60 = load i32, i32* %4, align 4
  %61 = sext i32 %60 to i64
  %62 = getelementptr inbounds [256 x i8], [256 x i8]* %59, i64 0, i64 %61
  %63 = load i8, i8* %62, align 1
  %64 = sext i8 %63 to i32
  %65 = icmp eq i32 %64, 84
  br i1 %65, label %66, label %73

66:                                               ; preds = %56
  %67 = load i32, i32* %3, align 4
  %68 = sext i32 %67 to i64
  %69 = getelementptr inbounds [1000 x [256 x i8]], [1000 x [256 x i8]]* %8, i64 0, i64 %68
  %70 = load i32, i32* %4, align 4
  %71 = sext i32 %70 to i64
  %72 = getelementptr inbounds [256 x i8], [256 x i8]* %69, i64 0, i64 %71
  store i8 65, i8* %72, align 1
  br label %125

73:                                               ; preds = %56
  %74 = load i32, i32* %3, align 4
  %75 = sext i32 %74 to i64
  %76 = getelementptr inbounds [1000 x [256 x i8]], [1000 x [256 x i8]]* %7, i64 0, i64 %75
  %77 = load i32, i32* %4, align 4
  %78 = sext i32 %77 to i64
  %79 = getelementptr inbounds [256 x i8], [256 x i8]* %76, i64 0, i64 %78
  %80 = load i8, i8* %79, align 1
  %81 = sext i8 %80 to i32
  %82 = icmp eq i32 %81, 67
  br i1 %82, label %83, label %90

83:                                               ; preds = %73
  %84 = load i32, i32* %3, align 4
  %85 = sext i32 %84 to i64
  %86 = getelementptr inbounds [1000 x [256 x i8]], [1000 x [256 x i8]]* %8, i64 0, i64 %85
  %87 = load i32, i32* %4, align 4
  %88 = sext i32 %87 to i64
  %89 = getelementptr inbounds [256 x i8], [256 x i8]* %86, i64 0, i64 %88
  store i8 71, i8* %89, align 1
  br label %125

90:                                               ; preds = %73
  %91 = load i32, i32* %3, align 4
  %92 = sext i32 %91 to i64
  %93 = getelementptr inbounds [1000 x [256 x i8]], [1000 x [256 x i8]]* %7, i64 0, i64 %92
  %94 = load i32, i32* %4, align 4
  %95 = sext i32 %94 to i64
  %96 = getelementptr inbounds [256 x i8], [256 x i8]* %93, i64 0, i64 %95
  %97 = load i8, i8* %96, align 1
  %98 = sext i8 %97 to i32
  %99 = icmp eq i32 %98, 71
  br i1 %99, label %100, label %107

100:                                              ; preds = %90
  %101 = load i32, i32* %3, align 4
  %102 = sext i32 %101 to i64
  %103 = getelementptr inbounds [1000 x [256 x i8]], [1000 x [256 x i8]]* %8, i64 0, i64 %102
  %104 = load i32, i32* %4, align 4
  %105 = sext i32 %104 to i64
  %106 = getelementptr inbounds [256 x i8], [256 x i8]* %103, i64 0, i64 %105
  store i8 67, i8* %106, align 1
  br label %125

107:                                              ; preds = %90
  %108 = load i32, i32* %3, align 4
  %109 = sext i32 %108 to i64
  %110 = getelementptr inbounds [1000 x [256 x i8]], [1000 x [256 x i8]]* %7, i64 0, i64 %109
  %111 = load i32, i32* %4, align 4
  %112 = sext i32 %111 to i64
  %113 = getelementptr inbounds [256 x i8], [256 x i8]* %110, i64 0, i64 %112
  %114 = load i8, i8* %113, align 1
  %115 = sext i8 %114 to i32
  %116 = icmp eq i32 %115, 0
  br i1 %116, label %117, label %124

117:                                              ; preds = %107
  %118 = load i32, i32* %3, align 4
  %119 = sext i32 %118 to i64
  %120 = getelementptr inbounds [1000 x [256 x i8]], [1000 x [256 x i8]]* %8, i64 0, i64 %119
  %121 = load i32, i32* %4, align 4
  %122 = sext i32 %121 to i64
  %123 = getelementptr inbounds [256 x i8], [256 x i8]* %120, i64 0, i64 %122
  store i8 0, i8* %123, align 1
  br label %128

124:                                              ; preds = %107
  br label %125

125:                                              ; preds = %124, %100, %83, %66, %49
  %126 = load i32, i32* %4, align 4
  %127 = add nsw i32 %126, 1
  store i32 %127, i32* %4, align 4
  br label %29

128:                                              ; preds = %117, %29
  %129 = load i32, i32* %3, align 4
  %130 = sext i32 %129 to i64
  %131 = getelementptr inbounds [1000 x [256 x i8]], [1000 x [256 x i8]]* %8, i64 0, i64 %130
  %132 = getelementptr inbounds [256 x i8], [256 x i8]* %131, i64 0, i64 0
  %133 = call i32 (i8*, ...) @printf(i8* getelementptr inbounds ([3 x i8], [3 x i8]* @.str.1, i64 0, i64 0), i8* %132)
  %134 = call i32 (i8*, ...) @printf(i8* getelementptr inbounds ([2 x i8], [2 x i8]* @.str.2, i64 0, i64 0))
  br label %135

135:                                              ; preds = %128
  %136 = load i32, i32* %3, align 4
  %137 = add nsw i32 %136, 1
  store i32 %137, i32* %3, align 4
  br label %24

138:                                              ; preds = %24
  ret i32 0
}

declare dso_local i32 @__isoc99_scanf(i8*, ...) #1

; Function Attrs: nounwind readonly
declare dso_local i64 @strlen(i8*) #2

declare dso_local i32 @printf(i8*, ...) #1


!llvm.module.flags = !{!0}
!llvm.ident = !{!1}

!0 = !{i32 1, !"wchar_size", i32 4}
!1 = !{!"clang version 10.0.0-4ubuntu1 "}
